target datalayout = "e-m:e-p270:32:32-p271:32:32-p272:64:64-i64:64-i128:128-f80:128-n8:16:32:64-S128"
target triple = "x86_64-pc-linux-gnu"

%struct.t_xrama = type { i32, ptr, i32, ptr, ptr, i32, i32, i32, float, ptr, [3 x [3 x float]], ptr, i32, ptr }

; Function Attrs: mustprogress uwtable
define noundef zeroext i1 @_Z8new_dataP7t_xrama(ptr noundef %0) #0 {
  %2 = alloca i1, align 1
  %3 = alloca ptr, align 8
  store ptr %0, ptr %3, align 8, !tbaa !4
  %4 = load ptr, ptr %3, align 8, !tbaa !4
  %5 = getelementptr inbounds nuw %struct.t_xrama, ptr %4, i32 0, i32 13
  %6 = load ptr, ptr %5, align 8, !tbaa !8
  %7 = load ptr, ptr %3, align 8, !tbaa !4
  %8 = getelementptr inbounds nuw %struct.t_xrama, ptr %7, i32 0, i32 4
  %9 = load ptr, ptr %8, align 8, !tbaa !17
  %10 = load ptr, ptr %3, align 8, !tbaa !4
  %11 = getelementptr inbounds nuw %struct.t_xrama, ptr %10, i32 0, i32 8
  %12 = load ptr, ptr %3, align 8, !tbaa !4
  %13 = getelementptr inbounds nuw %struct.t_xrama, ptr %12, i32 0, i32 9
  %14 = load ptr, ptr %13, align 8, !tbaa !18
  %15 = load ptr, ptr %3, align 8, !tbaa !4
  %16 = getelementptr inbounds nuw %struct.t_xrama, ptr %15, i32 0, i32 10
  %17 = getelementptr inbounds [3 x [3 x float]], ptr %16, i64 0, i64 0
  %18 = call noundef zeroext i1 @_Z11read_next_xPK16gmx_output_env_tP11t_trxstatusPfPA3_fS6_(ptr noundef %6, ptr noundef %9, ptr noundef %11, ptr noundef %14, ptr noundef %17)
  br i1 %18, label %20, label %19

19:                                               ; preds = %1
  store i1 false, ptr %2, align 1
  br label %22

20:                                               ; preds = %1
  %21 = load ptr, ptr %3, align 8, !tbaa !4
  call void @_ZL9calc_dihsP7t_xrama(ptr noundef %21)
  store i1 true, ptr %2, align 1
  br label %22

22:                                               ; preds = %20, %19
  %23 = load i1, ptr %2, align 1
  ret i1 %23
}