; Function Attrs: mustprogress uwtable
define noundef zeroext i1 @_Z8new_dataP7t_xrama(ptr noundef %0) local_unnamed_addr #0 {
  %2 = getelementptr inbounds nuw i8, ptr %0, i64 120
  %3 = load ptr, ptr %2, align 8, !tbaa !4
  %4 = getelementptr inbounds nuw i8, ptr %0, i64 32
  %5 = load ptr, ptr %4, align 8, !tbaa !16
  %6 = getelementptr inbounds nuw i8, ptr %0, i64 52
  %7 = getelementptr inbounds nuw i8, ptr %0, i64 56
  %8 = load ptr, ptr %7, align 8, !tbaa !17
  %9 = getelementptr inbounds nuw i8, ptr %0, i64 64
  %10 = tail call noundef zeroext i1 @_Z11read_next_xPK16gmx_output_env_tP11t_trxstatusPfPA3_fS6_(ptr noundef %3, ptr noundef %5, ptr noundef nonnull %6, ptr noundef %8, ptr noundef nonnull %9)
  br i1 %10, label %11, label %12

11:                                               ; preds = %1
  tail call fastcc void @_ZL9calc_dihsP7t_xrama(ptr noundef nonnull %0)
  br label %12

12:                                               ; preds = %1, %11
  ret i1 %10
}